target datalayout = "e-m:e-p270:32:32-p271:32:32-p272:64:64-i64:64-i128:128-f80:128-n8:16:32:64-S128"
target triple = "x86_64-pc-linux-gnu"

%struct.CRYPTO_REF_COUNT = type { i32 }
%struct.bio_st = type { ptr, ptr, ptr, ptr, ptr, i32, i32, i32, i32, i32, ptr, ptr, ptr, %struct.CRYPTO_REF_COUNT, i64, i64, %struct.crypto_ex_data_st }
%struct.crypto_ex_data_st = type { ptr, ptr }
%struct.bio_method_st = type { i32, ptr, ptr, ptr, ptr, ptr, ptr, ptr, ptr, ptr, ptr, ptr, ptr, ptr }

@.str = private unnamed_addr constant [32 x i8] c"../openssl/crypto/bio/bio_lib.c\00", align 1
@__func__.bio_read_intern = private unnamed_addr constant [16 x i8] c"bio_read_intern\00", align 1

; Function Attrs: nounwind uwtable
define internal i64 @bio_call_callback(ptr noundef %0, i32 noundef %1, ptr noundef %2, i64 noundef %3, i32 noundef %4, i64 noundef %5, i64 noundef %6, ptr noundef %7) #0 {
  %9 = alloca i64, align 8
  %10 = alloca ptr, align 8
  %11 = alloca i32, align 4
  %12 = alloca ptr, align 8
  %13 = alloca i64, align 8
  %14 = alloca i32, align 4
  %15 = alloca i64, align 8
  %16 = alloca i64, align 8
  %17 = alloca ptr, align 8
  %18 = alloca i64, align 8
  %19 = alloca i32, align 4
  %20 = alloca i32, align 4
  store ptr %0, ptr %10, align 8, !tbaa !10
  store i32 %1, ptr %11, align 4, !tbaa !26
  store ptr %2, ptr %12, align 8, !tbaa !33
  store i64 %3, ptr %13, align 8, !tbaa !34
  store i32 %4, ptr %14, align 4, !tbaa !26
  store i64 %5, ptr %15, align 8, !tbaa !34
  store i64 %6, ptr %16, align 8, !tbaa !34
  store ptr %7, ptr %17, align 8, !tbaa !35
  call void @llvm.lifetime.start.p0(i64 8, ptr %18) #5
  %21 = load i64, ptr %16, align 8, !tbaa !34
  store i64 %21, ptr %18, align 8, !tbaa !34
  call void @llvm.lifetime.start.p0(i64 4, ptr %19) #5
  %22 = load ptr, ptr %10, align 8, !tbaa !10
  %23 = getelementptr inbounds nuw %struct.bio_st, ptr %22, i32 0, i32 3
  %24 = load ptr, ptr %23, align 8, !tbaa !29
  %25 = icmp ne ptr %24, null
  br i1 %25, label %26, label %40

26:                                               ; preds = %8
  %27 = load ptr, ptr %10, align 8, !tbaa !10
  %28 = getelementptr inbounds nuw %struct.bio_st, ptr %27, i32 0, i32 3
  %29 = load ptr, ptr %28, align 8, !tbaa !29
  %30 = load ptr, ptr %10, align 8, !tbaa !10
  %31 = load i32, ptr %11, align 4, !tbaa !26
  %32 = load ptr, ptr %12, align 8, !tbaa !33
  %33 = load i64, ptr %13, align 8, !tbaa !34
  %34 = load i32, ptr %14, align 4, !tbaa !26
  %35 = load i64, ptr %15, align 8, !tbaa !34
  %36 = load i64, ptr %16, align 8, !tbaa !34
  %37 = trunc i64 %36 to i32
  %38 = load ptr, ptr %17, align 8, !tbaa !35
  %39 = call i64 %29(ptr noundef %30, i32 noundef %31, ptr noundef %32, i64 noundef %33, i32 noundef %34, i64 noundef %35, i32 noundef %37, ptr noundef %38)
  store i64 %39, ptr %9, align 8
  store i32 1, ptr %20, align 4
  br label %101

40:                                               ; preds = %8
  %41 = load i32, ptr %11, align 4, !tbaa !26
  %42 = and i32 %41, -129
  store i32 %42, ptr %19, align 4, !tbaa !26
  %43 = load i32, ptr %19, align 4, !tbaa !26
  %44 = icmp eq i32 %43, 2
  br i1 %44, label %51, label %45

45:                                               ; preds = %40
  %46 = load i32, ptr %19, align 4, !tbaa !26
  %47 = icmp eq i32 %46, 3
  br i1 %47, label %51, label %48

48:                                               ; preds = %45
  %49 = load i32, ptr %19, align 4, !tbaa !26
  %50 = icmp eq i32 %49, 5
  br i1 %50, label %51, label %58

51:                                               ; preds = %48, %45, %40
  %52 = load i64, ptr %13, align 8, !tbaa !34
  %53 = icmp ugt i64 %52, 2147483647
  br i1 %53, label %54, label %55

54:                                               ; preds = %51
  store i64 -1, ptr %9, align 8
  store i32 1, ptr %20, align 4
  br label %101

55:                                               ; preds = %51
  %56 = load i64, ptr %13, align 8, !tbaa !34
  %57 = trunc i64 %56 to i32
  store i32 %57, ptr %14, align 4, !tbaa !26
  br label %58

58:                                               ; preds = %55, %48
  %59 = load i64, ptr %16, align 8, !tbaa !34
  %60 = icmp sgt i64 %59, 0
  br i1 %60, label %61, label %76

61:                                               ; preds = %58
  %62 = load i32, ptr %11, align 4, !tbaa !26
  %63 = and i32 %62, 128
  %64 = icmp ne i32 %63, 0
  br i1 %64, label %65, label %76

65:                                               ; preds = %61
  %66 = load i32, ptr %19, align 4, !tbaa !26
  %67 = icmp ne i32 %66, 6
  br i1 %67, label %68, label %76

68:                                               ; preds = %65
  %69 = load ptr, ptr %17, align 8, !tbaa !35
  %70 = load i64, ptr %69, align 8, !tbaa !34
  %71 = icmp ugt i64 %70, 2147483647
  br i1 %71, label %72, label %73

72:                                               ; preds = %68
  store i64 -1, ptr %9, align 8
  store i32 1, ptr %20, align 4
  br label %101

73:                                               ; preds = %68
  %74 = load ptr, ptr %17, align 8, !tbaa !35
  %75 = load i64, ptr %74, align 8, !tbaa !34
  store i64 %75, ptr %16, align 8, !tbaa !34
  br label %76

76:                                               ; preds = %73, %65, %61, %58
  %77 = load ptr, ptr %10, align 8, !tbaa !10
  %78 = getelementptr inbounds nuw %struct.bio_st, ptr %77, i32 0, i32 2
  %79 = load ptr, ptr %78, align 8, !tbaa !28
  %80 = load ptr, ptr %10, align 8, !tbaa !10
  %81 = load i32, ptr %11, align 4, !tbaa !26
  %82 = load ptr, ptr %12, align 8, !tbaa !33
  %83 = load i32, ptr %14, align 4, !tbaa !26
  %84 = load i64, ptr %15, align 8, !tbaa !34
  %85 = load i64, ptr %16, align 8, !tbaa !34
  %86 = call i64 %79(ptr noundef %80, i32 noundef %81, ptr noundef %82, i32 noundef %83, i64 noundef %84, i64 noundef %85)
  store i64 %86, ptr %18, align 8, !tbaa !34
  %87 = load i64, ptr %18, align 8, !tbaa !34
  %88 = icmp sgt i64 %87, 0
  br i1 %88, label %89, label %99

89:                                               ; preds = %76
  %90 = load i32, ptr %11, align 4, !tbaa !26
  %91 = and i32 %90, 128
  %92 = icmp ne i32 %91, 0
  br i1 %92, label %93, label %99

93:                                               ; preds = %89
  %94 = load i32, ptr %19, align 4, !tbaa !26
  %95 = icmp ne i32 %94, 6
  br i1 %95, label %96, label %99

96:                                               ; preds = %93
  %97 = load i64, ptr %18, align 8, !tbaa !34
  %98 = load ptr, ptr %17, align 8, !tbaa !35
  store i64 %97, ptr %98, align 8, !tbaa !34
  store i64 1, ptr %18, align 8, !tbaa !34
  br label %99

99:                                               ; preds = %96, %93, %89, %76
  %100 = load i64, ptr %18, align 8, !tbaa !34
  store i64 %100, ptr %9, align 8
  store i32 1, ptr %20, align 4
  br label %101

101:                                              ; preds = %99, %72, %54, %26
  call void @llvm.lifetime.end.p0(i64 4, ptr %19) #5
  call void @llvm.lifetime.end.p0(i64 8, ptr %18) #5
  %102 = load i64, ptr %9, align 8
  ret i64 %102
}

; Function Attrs: nounwind uwtable
define internal i32 @bio_read_intern(ptr noundef %0, ptr noundef %1, i64 noundef %2, ptr noundef %3) #0 {
  %5 = alloca i32, align 4
  %6 = alloca ptr, align 8
  %7 = alloca ptr, align 8
  %8 = alloca i64, align 8
  %9 = alloca ptr, align 8
  %10 = alloca i32, align 4
  %11 = alloca i32, align 4
  store ptr %0, ptr %6, align 8, !tbaa !10
  store ptr %1, ptr %7, align 8, !tbaa !25
  store i64 %2, ptr %8, align 8, !tbaa !34
  store ptr %3, ptr %9, align 8, !tbaa !35
  call void @llvm.lifetime.start.p0(i64 4, ptr %10) #5
  %12 = load ptr, ptr %6, align 8, !tbaa !10
  %13 = icmp eq ptr %12, null
  br i1 %13, label %14, label %15

14:                                               ; preds = %4
  call void @ERR_new()
  call void @ERR_set_debug(ptr noundef @.str, i32 noundef 267, ptr noundef @__func__.bio_read_intern)
  call void (i32, i32, ptr, ...) @ERR_set_error(i32 noundef 32, i32 noundef 786690, ptr noundef null)
  store i32 -1, ptr %5, align 4
  store i32 1, ptr %11, align 4
  br label %103

15:                                               ; preds = %4
  %16 = load ptr, ptr %6, align 8, !tbaa !10
  %17 = getelementptr inbounds nuw %struct.bio_st, ptr %16, i32 0, i32 1
  %18 = load ptr, ptr %17, align 8, !tbaa !20
  %19 = icmp eq ptr %18, null
  br i1 %19, label %27, label %20

20:                                               ; preds = %15
  %21 = load ptr, ptr %6, align 8, !tbaa !10
  %22 = getelementptr inbounds nuw %struct.bio_st, ptr %21, i32 0, i32 1
  %23 = load ptr, ptr %22, align 8, !tbaa !20
  %24 = getelementptr inbounds nuw %struct.bio_method_st, ptr %23, i32 0, i32 4
  %25 = load ptr, ptr %24, align 8, !tbaa !42
  %26 = icmp eq ptr %25, null
  br i1 %26, label %27, label %28

27:                                               ; preds = %20, %15
  call void @ERR_new()
  call void @ERR_set_debug(ptr noundef @.str, i32 noundef 271, ptr noundef @__func__.bio_read_intern)
  call void (i32, i32, ptr, ...) @ERR_set_error(i32 noundef 32, i32 noundef 121, ptr noundef null)
  store i32 -2, ptr %5, align 4
  store i32 1, ptr %11, align 4
  br label %103

28:                                               ; preds = %20
  %29 = load ptr, ptr %6, align 8, !tbaa !10
  %30 = getelementptr inbounds nuw %struct.bio_st, ptr %29, i32 0, i32 2
  %31 = load ptr, ptr %30, align 8, !tbaa !28
  %32 = icmp ne ptr %31, null
  br i1 %32, label %38, label %33

33:                                               ; preds = %28
  %34 = load ptr, ptr %6, align 8, !tbaa !10
  %35 = getelementptr inbounds nuw %struct.bio_st, ptr %34, i32 0, i32 3
  %36 = load ptr, ptr %35, align 8, !tbaa !29
  %37 = icmp ne ptr %36, null
  br i1 %37, label %38, label %47

38:                                               ; preds = %33, %28
  %39 = load ptr, ptr %6, align 8, !tbaa !10
  %40 = load ptr, ptr %7, align 8, !tbaa !25
  %41 = load i64, ptr %8, align 8, !tbaa !34
  %42 = call i64 @bio_call_callback(ptr noundef %39, i32 noundef 2, ptr noundef %40, i64 noundef %41, i32 noundef 0, i64 noundef 0, i64 noundef 1, ptr noundef null)
  %43 = trunc i64 %42 to i32
  store i32 %43, ptr %10, align 4, !tbaa !26
  %44 = icmp sle i32 %43, 0
  br i1 %44, label %45, label %47

45:                                               ; preds = %38
  %46 = load i32, ptr %10, align 4, !tbaa !26
  store i32 %46, ptr %5, align 4
  store i32 1, ptr %11, align 4
  br label %103

47:                                               ; preds = %38, %33
  %48 = load ptr, ptr %6, align 8, !tbaa !10
  %49 = getelementptr inbounds nuw %struct.bio_st, ptr %48, i32 0, i32 5
  %50 = load i32, ptr %49, align 8, !tbaa !24
  %51 = icmp ne i32 %50, 0
  br i1 %51, label %53, label %52

52:                                               ; preds = %47
  call void @ERR_new()
  call void @ERR_set_debug(ptr noundef @.str, i32 noundef 281, ptr noundef @__func__.bio_read_intern)
  call void (i32, i32, ptr, ...) @ERR_set_error(i32 noundef 32, i32 noundef 120, ptr noundef null)
  store i32 -1, ptr %5, align 4
  store i32 1, ptr %11, align 4
  br label %103

53:                                               ; preds = %47
  %54 = load ptr, ptr %6, align 8, !tbaa !10
  %55 = getelementptr inbounds nuw %struct.bio_st, ptr %54, i32 0, i32 1
  %56 = load ptr, ptr %55, align 8, !tbaa !20
  %57 = getelementptr inbounds nuw %struct.bio_method_st, ptr %56, i32 0, i32 4
  %58 = load ptr, ptr %57, align 8, !tbaa !42
  %59 = load ptr, ptr %6, align 8, !tbaa !10
  %60 = load ptr, ptr %7, align 8, !tbaa !25
  %61 = load i64, ptr %8, align 8, !tbaa !34
  %62 = load ptr, ptr %9, align 8, !tbaa !35
  %63 = call i32 %58(ptr noundef %59, ptr noundef %60, i64 noundef %61, ptr noundef %62)
  store i32 %63, ptr %10, align 4, !tbaa !26
  %64 = load i32, ptr %10, align 4, !tbaa !26
  %65 = icmp sgt i32 %64, 0
  br i1 %65, label %66, label %73

66:                                               ; preds = %53
  %67 = load ptr, ptr %9, align 8, !tbaa !35
  %68 = load i64, ptr %67, align 8, !tbaa !34
  %69 = load ptr, ptr %6, align 8, !tbaa !10
  %70 = getelementptr inbounds nuw %struct.bio_st, ptr %69, i32 0, i32 14
  %71 = load i64, ptr %70, align 8, !tbaa !43
  %72 = add i64 %71, %68
  store i64 %72, ptr %70, align 8, !tbaa !43
  br label %73

73:                                               ; preds = %66, %53
  %74 = load ptr, ptr %6, align 8, !tbaa !10
  %75 = getelementptr inbounds nuw %struct.bio_st, ptr %74, i32 0, i32 2
  %76 = load ptr, ptr %75, align 8, !tbaa !28
  %77 = icmp ne ptr %76, null
  br i1 %77, label %83, label %78

78:                                               ; preds = %73
  %79 = load ptr, ptr %6, align 8, !tbaa !10
  %80 = getelementptr inbounds nuw %struct.bio_st, ptr %79, i32 0, i32 3
  %81 = load ptr, ptr %80, align 8, !tbaa !29
  %82 = icmp ne ptr %81, null
  br i1 %82, label %83, label %92

83:                                               ; preds = %78, %73
  %84 = load ptr, ptr %6, align 8, !tbaa !10
  %85 = load ptr, ptr %7, align 8, !tbaa !25
  %86 = load i64, ptr %8, align 8, !tbaa !34
  %87 = load i32, ptr %10, align 4, !tbaa !26
  %88 = sext i32 %87 to i64
  %89 = load ptr, ptr %9, align 8, !tbaa !35
  %90 = call i64 @bio_call_callback(ptr noundef %84, i32 noundef 130, ptr noundef %85, i64 noundef %86, i32 noundef 0, i64 noundef 0, i64 noundef %88, ptr noundef %89)
  %91 = trunc i64 %90 to i32
  store i32 %91, ptr %10, align 4, !tbaa !26
  br label %92

92:                                               ; preds = %83, %78
  %93 = load i32, ptr %10, align 4, !tbaa !26
  %94 = icmp sgt i32 %93, 0
  br i1 %94, label %95, label %101

95:                                               ; preds = %92
  %96 = load ptr, ptr %9, align 8, !tbaa !35
  %97 = load i64, ptr %96, align 8, !tbaa !34
  %98 = load i64, ptr %8, align 8, !tbaa !34
  %99 = icmp ugt i64 %97, %98
  br i1 %99, label %100, label %101

100:                                              ; preds = %95
  call void @ERR_new()
  call void @ERR_set_debug(ptr noundef @.str, i32 noundef 296, ptr noundef @__func__.bio_read_intern)
  call void (i32, i32, ptr, ...) @ERR_set_error(i32 noundef 32, i32 noundef 786691, ptr noundef null)
  store i32 -1, ptr %5, align 4
  store i32 1, ptr %11, align 4
  br label %103

101:                                              ; preds = %95, %92
  %102 = load i32, ptr %10, align 4, !tbaa !26
  store i32 %102, ptr %5, align 4
  store i32 1, ptr %11, align 4
  br label %103

103:                                              ; preds = %101, %100, %52, %45, %27, %14
  call void @llvm.lifetime.end.p0(i64 4, ptr %10) #5
  %104 = load i32, ptr %5, align 4
  ret i32 %104
}