; Function Attrs: nounwind uwtable
define internal fastcc i32 @bio_read_intern(ptr noundef %0, ptr noundef %1, i64 noundef %2, ptr noundef %3) unnamed_addr #0 {
  %5 = icmp eq ptr %0, null
  br i1 %5, label %bio_call_callback.exit.thread.sink.split, label %6

6:                                                ; preds = %4
  %7 = getelementptr inbounds nuw i8, ptr %0, i64 8
  %8 = load ptr, ptr %7, align 8, !tbaa !17
  %9 = icmp eq ptr %8, null
  br i1 %9, label %bio_call_callback.exit.thread.sink.split, label %10

10:                                               ; preds = %6
  %11 = getelementptr inbounds nuw i8, ptr %8, i64 32
  %12 = load ptr, ptr %11, align 8, !tbaa !31
  %13 = icmp eq ptr %12, null
  br i1 %13, label %bio_call_callback.exit.thread.sink.split, label %14

14:                                               ; preds = %10
  %15 = getelementptr inbounds nuw i8, ptr %0, i64 16
  %16 = load ptr, ptr %15, align 8, !tbaa !23
  %.not = icmp eq ptr %16, null
  %17 = getelementptr inbounds nuw i8, ptr %0, i64 24
  %18 = load ptr, ptr %17, align 8, !tbaa !24
  %.not33 = icmp eq ptr %18, null
  br i1 %.not, label %19, label %20

19:                                               ; preds = %14
  br i1 %.not33, label %29, label %.thread

20:                                               ; preds = %14
  br i1 %.not33, label %22, label %.thread

.thread:                                          ; preds = %19, %20
  %21 = tail call i64 %18(ptr noundef nonnull %0, i32 noundef 2, ptr noundef %1, i64 noundef %2, i32 noundef 0, i64 noundef 0, i32 noundef 1, ptr noundef null) #14
  br label %bio_call_callback.exit

22:                                               ; preds = %20
  %23 = icmp ugt i64 %2, 2147483647
  br i1 %23, label %bio_call_callback.exit.thread, label %24

24:                                               ; preds = %22
  %25 = trunc nuw nsw i64 %2 to i32
  %26 = tail call i64 %16(ptr noundef nonnull %0, i32 noundef 2, ptr noundef %1, i32 noundef %25, i64 noundef 0, i64 noundef 1) #14
  br label %bio_call_callback.exit

bio_call_callback.exit:                           ; preds = %24, %.thread
  %.0.i = phi i64 [ %21, %.thread ], [ %26, %24 ]
  %27 = trunc i64 %.0.i to i32
  %28 = icmp slt i32 %27, 1
  br i1 %28, label %bio_call_callback.exit.thread, label %29

29:                                               ; preds = %bio_call_callback.exit, %19
  %30 = getelementptr inbounds nuw i8, ptr %0, i64 40
  %31 = load i32, ptr %30, align 8, !tbaa !22
  %.not34 = icmp eq i32 %31, 0
  br i1 %.not34, label %bio_call_callback.exit.thread.sink.split, label %32

32:                                               ; preds = %29
  %33 = load ptr, ptr %7, align 8, !tbaa !17
  %34 = getelementptr inbounds nuw i8, ptr %33, i64 32
  %35 = load ptr, ptr %34, align 8, !tbaa !31
  %36 = tail call i32 %35(ptr noundef nonnull %0, ptr noundef %1, i64 noundef %2, ptr noundef %3) #14
  %37 = icmp sgt i32 %36, 0
  br i1 %37, label %38, label %43

38:                                               ; preds = %32
  %39 = load i64, ptr %3, align 8, !tbaa !32
  %40 = getelementptr inbounds nuw i8, ptr %0, i64 96
  %41 = load i64, ptr %40, align 8, !tbaa !33
  %42 = add i64 %41, %39
  store i64 %42, ptr %40, align 8, !tbaa !33
  br label %43

43:                                               ; preds = %38, %32
  %44 = load ptr, ptr %15, align 8, !tbaa !23
  %.not35 = icmp eq ptr %44, null
  %45 = getelementptr inbounds nuw i8, ptr %0, i64 24
  %46 = load ptr, ptr %45, align 8, !tbaa !24
  br i1 %.not35, label %47, label %48

47:                                               ; preds = %43
  %.not36 = icmp eq ptr %46, null
  br i1 %.not36, label %63, label %.thread45

48:                                               ; preds = %43
  %49 = sext i32 %36 to i64
  %.not.i37 = icmp eq ptr %46, null
  br i1 %.not.i37, label %51, label %.thread45

.thread45:                                        ; preds = %47, %48
  %50 = tail call i64 %46(ptr noundef nonnull %0, i32 noundef 130, ptr noundef %1, i64 noundef %2, i32 noundef 0, i64 noundef 0, i32 noundef %36, ptr noundef %3) #14
  br label %bio_call_callback.exit39

51:                                               ; preds = %48
  %52 = icmp ugt i64 %2, 2147483647
  br i1 %52, label %bio_call_callback.exit39, label %53

53:                                               ; preds = %51
  %54 = trunc nuw nsw i64 %2 to i32
  br i1 %37, label %55, label %58

55:                                               ; preds = %53
  %56 = load i64, ptr %3, align 8, !tbaa !32
  %57 = icmp ugt i64 %56, 2147483647
  br i1 %57, label %bio_call_callback.exit39, label %58

58:                                               ; preds = %55, %53
  %.044.i = phi i64 [ %49, %53 ], [ %56, %55 ]
  %59 = tail call i64 %44(ptr noundef nonnull %0, i32 noundef 130, ptr noundef %1, i32 noundef %54, i64 noundef 0, i64 noundef %.044.i) #14
  %60 = icmp sgt i64 %59, 0
  br i1 %60, label %61, label %bio_call_callback.exit39

61:                                               ; preds = %58
  store i64 %59, ptr %3, align 8, !tbaa !32
  br label %bio_call_callback.exit39

bio_call_callback.exit39:                         ; preds = %.thread45, %51, %55, %58, %61
  %.0.i38 = phi i64 [ %50, %.thread45 ], [ -1, %51 ], [ -1, %55 ], [ 1, %61 ], [ %59, %58 ]
  %62 = trunc i64 %.0.i38 to i32
  br label %63

63:                                               ; preds = %bio_call_callback.exit39, %47
  %.0 = phi i32 [ %62, %bio_call_callback.exit39 ], [ %36, %47 ]
  %64 = icmp sgt i32 %.0, 0
  br i1 %64, label %65, label %bio_call_callback.exit.thread

65:                                               ; preds = %63
  %66 = load i64, ptr %3, align 8, !tbaa !32
  %67 = icmp ugt i64 %66, %2
  br i1 %67, label %bio_call_callback.exit.thread.sink.split, label %bio_call_callback.exit.thread

bio_call_callback.exit.thread.sink.split:         ; preds = %65, %29, %6, %10, %4
  %.sink47 = phi i32 [ 267, %4 ], [ 271, %10 ], [ 271, %6 ], [ 281, %29 ], [ 296, %65 ]
  %.sink = phi i32 [ 786690, %4 ], [ 121, %10 ], [ 121, %6 ], [ 120, %29 ], [ 786691, %65 ]
  %.029.ph = phi i32 [ -1, %4 ], [ -2, %10 ], [ -2, %6 ], [ -1, %29 ], [ -1, %65 ]
  tail call void @ERR_new() #14
  tail call void @ERR_set_debug(ptr noundef nonnull @.str, i32 noundef %.sink47, ptr noundef nonnull @__func__.bio_read_intern) #14
  tail call void (i32, i32, ptr, ...) @ERR_set_error(i32 noundef 32, i32 noundef %.sink, ptr noundef null) #14
  br label %bio_call_callback.exit.thread

bio_call_callback.exit.thread:                    ; preds = %bio_call_callback.exit.thread.sink.split, %22, %63, %65, %bio_call_callback.exit
  %.029 = phi i32 [ %27, %bio_call_callback.exit ], [ %.0, %65 ], [ %.0, %63 ], [ -1, %22 ], [ %.029.ph, %bio_call_callback.exit.thread.sink.split ]
  ret i32 %.029
}